; Function Attrs: mustprogress uwtable
define void @_ZN6casadi18BSplineInterpolantC2ERKNSt7__cxx1112basic_stringIcSt11char_traitsIcESaIcEEERKSt6vectorIdSaIdEERKS9_IxSaIxEESD_x(ptr noundef nonnull align 8 dereferenceable(1520) %0, ptr noundef nonnull align 8 dereferenceable(32) %1, ptr noundef nonnull align 8 dereferenceable(24) %2, ptr noundef nonnull align 8 dereferenceable(24) %3, ptr noundef nonnull align 8 dereferenceable(24) %4, i64 noundef %5) unnamed_addr #4 align 2 personality ptr @__gxx_personality_v0 {
  tail call void @_ZN6casadi11InterpolantC2ERKNSt7__cxx1112basic_stringIcSt11char_traitsIcESaIcEEERKSt6vectorIdSaIdEERKS9_IxSaIxEESD_x(ptr noundef nonnull align 8 dereferenceable(1440) %0, ptr noundef nonnull align 8 dereferenceable(32) %1, ptr noundef nonnull align 8 dereferenceable(24) %2, ptr noundef nonnull align 8 dereferenceable(24) %3, ptr noundef nonnull align 8 dereferenceable(24) %4, i64 noundef %5)
  store ptr getelementptr inbounds nuw inrange(-16, 936) (i8, ptr @_ZTVN6casadi18BSplineInterpolantE, i64 16), ptr %0, align 8, !tbaa !47
  %7 = getelementptr inbounds nuw i8, ptr %0, i64 1312
  store ptr getelementptr inbounds nuw inrange(-16, 8) (i8, ptr @_ZTVN6casadi18BSplineInterpolantE, i64 968), ptr %7, align 8, !tbaa !47
  %8 = getelementptr inbounds nuw i8, ptr %0, i64 1440
  invoke void @_ZN6casadi8FunctionC1Ev(ptr noundef nonnull align 8 dereferenceable(8) %8)
          to label %9 unwind label %14

9:                                                ; preds = %6
  %10 = getelementptr inbounds nuw i8, ptr %0, i64 1448
  %11 = getelementptr inbounds nuw i8, ptr %0, i64 1464
  store ptr %11, ptr %10, align 8, !tbaa !22
  %12 = getelementptr inbounds nuw i8, ptr %0, i64 1456
  store i64 0, ptr %12, align 8, !tbaa !25
  store i8 0, ptr %11, align 8, !tbaa !24
  %13 = getelementptr inbounds nuw i8, ptr %0, i64 1496
  tail call void @llvm.memset.p0.i64(ptr noundef nonnull align 8 dereferenceable(24) %13, i8 0, i64 24, i1 false)
  ret void

14:                                               ; preds = %6
  %15 = landingpad { ptr, i32 }
          cleanup
  tail call void @_ZN6casadi11InterpolantD2Ev(ptr noundef nonnull align 8 dereferenceable(1440) %0) #26
  resume { ptr, i32 } %15
}